(lp0
(lp1
(lp2
S'GRASS'
p3
aa(lp4
S'GRASS'
p5
aa(lp6
S'GRASS'
p7
aa(lp8
g3
aa(lp9
g3
aa(lp10
g5
aa(lp11
g3
aa(lp12
g5
aa(lp13
g5
aa(lp14
S'GRASS'
p15
aa(lp16
S'GRASS'
p17
aa(lp18
g3
aa(lp19
S'GRASS'
p20
aa(lp21
g15
aa(lp22
g15
aa(lp23
g5
aa(lp24
g5
aa(lp25
g7
aa(lp26
g3
aa(lp27
g15
aa(lp28
g7
aa(lp29
g15
aa(lp30
g20
aa(lp31
g7
aa(lp32
g5
aa(lp33
g17
aa(lp34
g15
aa(lp35
g15
aa(lp36
g7
aa(lp37
g20
aa(lp38
g17
aa(lp39
g3
aa(lp40
S'WATER'
p41
aa(lp42
S'DEATH'
p43
aa(lp44
g43
aa(lp45
S'WATER'
p46
aa(lp47
g17
aa(lp48
g17
aa(lp49
g3
aa(lp50
g3
aa(lp51
g7
aa(lp52
g3
aa(lp53
g3
aa(lp54
g3
aa(lp55
g15
aa(lp56
g20
aaa(lp57
(lp58
g15
aa(lp59
g5
aa(lp60
g3
aa(lp61
g17
aa(lp62
g17
aa(lp63
g17
aa(lp64
g3
aa(lp65
g7
aa(lp66
g7
aa(lp67
g17
aa(lp68
g17
aa(lp69
g3
aa(lp70
g5
aa(lp71
g5
aa(lp72
g20
aa(lp73
g3
aa(lp74
g15
aa(lp75
g17
aa(lp76
g15
aa(lp77
g3
aa(lp78
g17
aa(lp79
g17
aa(lp80
g7
aa(lp81
g3
aa(lp82
g3
aa(lp83
g3
aa(lp84
g20
aa(lp85
g20
aa(lp86
g3
aa(lp87
g5
aa(lp88
g5
aa(lp89
g3
aa(lp90
g41
aa(lp91
g43
aa(lp92
g43
aa(lp93
g46
aa(lp94
g15
aa(lp95
g20
aa(lp96
g5
aa(lp97
g20
aa(lp98
g20
aa(lp99
g20
aa(lp100
g20
aa(lp101
g3
aa(lp102
g7
aa(lp103
g7
aaa(lp104
(lp105
g20
aa(lp106
g17
aa(lp107
g15
aa(lp108
g7
aa(lp109
g3
aa(lp110
g15
aa(lp111
g17
aa(lp112
g3
aa(lp113
g7
aa(lp114
g15
aa(lp115
g7
aa(lp116
g17
aa(lp117
g7
aa(lp118
g17
aa(lp119
g15
aa(lp120
g15
aa(lp121
g15
aa(lp122
g7
aa(lp123
g3
aa(lp124
g17
aa(lp125
g17
aa(lp126
g5
aa(lp127
g7
aa(lp128
g17
aa(lp129
g15
aa(lp130
g3
aa(lp131
g3
aa(lp132
g7
aa(lp133
g7
aa(lp134
g3
aa(lp135
g3
aa(lp136
g20
aa(lp137
g41
aa(lp138
g43
aa(lp139
g43
aa(lp140
g46
aa(lp141
g7
aa(lp142
g3
aa(lp143
g20
aa(lp144
g5
aa(lp145
g17
aa(lp146
g3
aa(lp147
g3
aa(lp148
g7
aa(lp149
g5
aa(lp150
g20
aaa(lp151
(lp152
g7
aa(lp153
g17
aa(lp154
g5
aa(lp155
g17
aa(lp156
g20
aa(lp157
g5
aa(lp158
g15
aa(lp159
g17
aa(lp160
g5
aa(lp161
g5
aa(lp162
g7
aa(lp163
g3
aa(lp164
g15
aa(lp165
g20
aa(lp166
g20
aa(lp167
g5
aa(lp168
g20
aa(lp169
g3
aa(lp170
g17
aa(lp171
g7
aa(lp172
g3
aa(lp173
g15
aa(lp174
g20
aa(lp175
g5
aa(lp176
g7
aa(lp177
g17
aa(lp178
g7
aa(lp179
g3
aa(lp180
g3
aa(lp181
g7
aa(lp182
g17
aa(lp183
g20
aa(lp184
g41
aa(lp185
g43
aa(lp186
g43
aa(lp187
g46
aa(lp188
g5
aa(lp189
g15
aa(lp190
g15
aa(lp191
g3
aa(lp192
g15
aa(lp193
g15
aa(lp194
g15
aa(lp195
g5
aa(lp196
g15
aa(lp197
g17
aaa(lp198
(lp199
g20
aa(lp200
g7
aa(lp201
g17
aa(lp202
g17
aa(lp203
g5
aa(lp204
g20
aa(lp205
g3
aa(lp206
g17
aa(lp207
g7
aa(lp208
g3
aa(lp209
S'CASA'
p210
aS'TOP_LEFT'
p211
aa(lp212
S'CASA'
p213
aS'MID_TOP'
p214
aa(lp215
S'CASA'
p216
aS'TOP_RIGHT'
p217
aa(lp218
g3
aa(lp219
S'WATER'
p220
aa(lp221
S'WATER'
p222
aa(lp223
g222
aa(lp224
g222
aa(lp225
g222
aa(lp226
g222
aa(lp227
g222
aa(lp228
S'WATER'
p229
aa(lp230
g7
aa(lp231
g7
aa(lp232
g20
aa(lp233
g20
aa(lp234
g17
aa(lp235
g5
aa(lp236
g5
aa(lp237
g5
aa(lp238
g15
aa(lp239
g3
aa(lp240
g41
aa(lp241
g43
aa(lp242
g43
aa(lp243
g46
aa(lp244
g5
aa(lp245
g5
aa(lp246
g15
aa(lp247
g5
aa(lp248
g5
aa(lp249
g20
aa(lp250
g5
aa(lp251
g17
aa(lp252
g15
aa(lp253
g17
aaa(lp254
(lp255
g17
aa(lp256
g5
aa(lp257
g7
aa(lp258
g20
aa(lp259
g3
aa(lp260
g5
aa(lp261
g20
aa(lp262
g20
aa(lp263
g17
aa(lp264
g17
aa(lp265
S'CASA'
p266
aS'BOTTOM_LEFT'
p267
aa(lp268
S'CASA'
p269
aS'MID_BOTTOM'
p270
aa(lp271
S'CASA'
p272
aS'BOTTOM_RIGHT'
p273
aa(lp274
g7
aa(lp275
g41
aa(lp276
g43
aa(lp277
g43
aa(lp278
g43
aa(lp279
g43
aa(lp280
g43
aa(lp281
g43
aa(lp282
g46
aa(lp283
g20
aa(lp284
g7
aa(lp285
g7
aa(lp286
g20
aa(lp287
g17
aa(lp288
g3
aa(lp289
g20
aa(lp290
g3
aa(lp291
g20
aa(lp292
g15
aa(lp293
g41
aa(lp294
g43
aa(lp295
g43
aa(lp296
g46
aa(lp297
g7
aa(lp298
g20
aa(lp299
g20
aa(lp300
g20
aa(lp301
g15
aa(lp302
g15
aa(lp303
g15
aa(lp304
g3
aa(lp305
g3
aa(lp306
g7
aaa(lp307
(lp308
g5
aa(lp309
g20
aa(lp310
g7
aa(lp311
g15
aa(lp312
g7
aa(lp313
g5
aa(lp314
g17
aa(lp315
g5
aa(lp316
g5
aa(lp317
g20
aa(lp318
g5
aa(lp319
g20
aa(lp320
g7
aa(lp321
g17
aa(lp322
g41
aa(lp323
g43
aa(lp324
g43
aa(lp325
g43
aa(lp326
g43
aa(lp327
g43
aa(lp328
g43
aa(lp329
g46
aa(lp330
g7
aa(lp331
g5
aa(lp332
g7
aa(lp333
g15
aa(lp334
g20
aa(lp335
g5
aa(lp336
g20
aa(lp337
g7
aa(lp338
g7
aa(lp339
g3
aa(lp340
g41
aa(lp341
g43
aa(lp342
g43
aa(lp343
g46
aa(lp344
g20
aa(lp345
g7
aa(lp346
g15
aa(lp347
g17
aa(lp348
g20
aa(lp349
g7
aa(lp350
g15
aa(lp351
g3
aa(lp352
g15
aa(lp353
g17
aaa(lp354
(lp355
g3
aa(lp356
g5
aa(lp357
g20
aa(lp358
g20
aa(lp359
g17
aa(lp360
g5
aa(lp361
g20
aa(lp362
g15
aa(lp363
g5
aa(lp364
g17
aa(lp365
g3
aa(lp366
g20
aa(lp367
g3
aa(lp368
g5
aa(lp369
g41
aa(lp370
g43
aa(lp371
g43
aa(lp372
g43
aa(lp373
g43
aa(lp374
g43
aa(lp375
g43
aa(lp376
g46
aa(lp377
g5
aa(lp378
g5
aa(lp379
g3
aa(lp380
g17
aa(lp381
g17
aa(lp382
g7
aa(lp383
g7
aa(lp384
g20
aa(lp385
g7
aa(lp386
g15
aa(lp387
g41
aa(lp388
g43
aa(lp389
g43
aa(lp390
g46
aa(lp391
g7
aa(lp392
g15
aa(lp393
g5
aa(lp394
g5
aa(lp395
g3
aa(lp396
g3
aa(lp397
g5
aa(lp398
g3
aa(lp399
g15
aa(lp400
g7
aaa(lp401
(lp402
g7
aa(lp403
g5
aa(lp404
g7
aa(lp405
g5
aa(lp406
g5
aa(lp407
g3
aa(lp408
g17
aa(lp409
g17
aa(lp410
g7
aa(lp411
g15
aa(lp412
g3
aa(lp413
g5
aa(lp414
g7
aa(lp415
g20
aa(lp416
g41
aa(lp417
g43
aa(lp418
g43
aa(lp419
g43
aa(lp420
g43
aa(lp421
g43
aa(lp422
g43
aa(lp423
g46
aa(lp424
g15
aa(lp425
g3
aa(lp426
g5
aa(lp427
g7
aa(lp428
g5
aa(lp429
g210
ag211
aa(lp430
g213
ag214
aa(lp431
g216
ag217
aa(lp432
g3
aa(lp433
g15
aa(lp434
g41
aa(lp435
g43
aa(lp436
g43
aa(lp437
g46
aa(lp438
g17
aa(lp439
g15
aa(lp440
g20
aa(lp441
g20
aa(lp442
g7
aa(lp443
g15
aa(lp444
g5
aa(lp445
g7
aa(lp446
g7
aa(lp447
g20
aaa(lp448
(lp449
g20
aa(lp450
g17
aa(lp451
g3
aa(lp452
g20
aa(lp453
g20
aa(lp454
g15
aa(lp455
g20
aa(lp456
g5
aa(lp457
g5
aa(lp458
g5
aa(lp459
g5
aa(lp460
g7
aa(lp461
g17
aa(lp462
g20
aa(lp463
g41
aa(lp464
g43
aa(lp465
g43
aa(lp466
g43
aa(lp467
g43
aa(lp468
g43
aa(lp469
g43
aa(lp470
g46
aa(lp471
g5
aa(lp472
g3
aa(lp473
g5
aa(lp474
g20
aa(lp475
g20
aa(lp476
g266
ag267
aa(lp477
g269
ag270
aa(lp478
g272
ag273
aa(lp479
g17
aa(lp480
g15
aa(lp481
g41
aa(lp482
g43
aa(lp483
g43
aa(lp484
g46
aa(lp485
g3
aa(lp486
g3
aa(lp487
g210
ag211
aa(lp488
g213
ag214
aa(lp489
g216
ag217
aa(lp490
g15
aa(lp491
g17
aa(lp492
g15
aa(lp493
g7
aa(lp494
g7
aaa(lp495
(lp496
g7
aa(lp497
g3
aa(lp498
g15
aa(lp499
g17
aa(lp500
g7
aa(lp501
g3
aa(lp502
g15
aa(lp503
g17
aa(lp504
g15
aa(lp505
g5
aa(lp506
g7
aa(lp507
g20
aa(lp508
g7
aa(lp509
g17
aa(lp510
S'WATER'
p511
aa(lp512
S'WATER'
p513
aa(lp514
g513
aa(lp515
g513
aa(lp516
g513
aa(lp517
g513
aa(lp518
g513
aa(lp519
S'WATER'
p520
aa(lp521
g7
aa(lp522
g3
aa(lp523
g7
aa(lp524
g7
aa(lp525
g15
aa(lp526
g5
aa(lp527
g17
aa(lp528
g7
aa(lp529
g7
aa(lp530
g3
aa(lp531
g41
aa(lp532
g43
aa(lp533
g43
aa(lp534
g46
aa(lp535
g3
aa(lp536
g3
aa(lp537
g266
ag267
aa(lp538
g269
ag270
aa(lp539
g272
ag273
aa(lp540
g7
aa(lp541
g15
aa(lp542
g20
aa(lp543
g20
aa(lp544
g17
aaa(lp545
(lp546
g7
aa(lp547
g15
aa(lp548
g15
aa(lp549
g17
aa(lp550
g3
aa(lp551
g17
aa(lp552
g17
aa(lp553
g3
aa(lp554
g3
aa(lp555
g7
aa(lp556
g20
aa(lp557
g20
aa(lp558
g20
aa(lp559
g3
aa(lp560
g20
aa(lp561
g20
aa(lp562
g15
aa(lp563
g17
aa(lp564
g7
aa(lp565
g17
aa(lp566
g15
aa(lp567
g17
aa(lp568
g7
aa(lp569
g15
aa(lp570
g15
aa(lp571
g7
aa(lp572
g17
aa(lp573
g20
aa(lp574
g3
aa(lp575
g3
aa(lp576
g7
aa(lp577
g7
aa(lp578
g41
aa(lp579
g43
aa(lp580
g43
aa(lp581
g46
aa(lp582
g3
aa(lp583
g3
aa(lp584
g3
aa(lp585
g7
aa(lp586
g5
aa(lp587
g17
aa(lp588
g15
aa(lp589
g7
aa(lp590
g20
aa(lp591
g3
aaa(lp592
(lp593
g15
aa(lp594
g15
aa(lp595
g20
aa(lp596
g15
aa(lp597
g5
aa(lp598
g5
aa(lp599
g15
aa(lp600
g15
aa(lp601
g7
aa(lp602
g3
aa(lp603
g7
aa(lp604
g3
aa(lp605
g17
aa(lp606
g20
aa(lp607
g5
aa(lp608
g15
aa(lp609
g17
aa(lp610
g17
aa(lp611
g15
aa(lp612
g15
aa(lp613
g5
aa(lp614
g7
aa(lp615
g5
aa(lp616
g3
aa(lp617
g3
aa(lp618
g3
aa(lp619
g7
aa(lp620
g20
aa(lp621
g3
aa(lp622
g20
aa(lp623
g5
aa(lp624
g3
aa(lp625
g41
aa(lp626
g43
aa(lp627
g43
aa(lp628
g46
aa(lp629
g20
aa(lp630
g20
aa(lp631
g17
aa(lp632
g7
aa(lp633
g5
aa(lp634
g20
aa(lp635
g7
aa(lp636
g5
aa(lp637
g20
aa(lp638
g7
aaa(lp639
(lp640
g3
aa(lp641
g3
aa(lp642
g17
aa(lp643
g15
aa(lp644
g17
aa(lp645
g5
aa(lp646
g7
aa(lp647
g15
aa(lp648
g3
aa(lp649
g5
aa(lp650
g20
aa(lp651
g20
aa(lp652
g17
aa(lp653
g20
aa(lp654
g5
aa(lp655
g7
aa(lp656
g5
aa(lp657
g7
aa(lp658
g3
aa(lp659
g3
aa(lp660
g5
aa(lp661
g15
aa(lp662
g17
aa(lp663
g3
aa(lp664
g7
aa(lp665
g3
aa(lp666
g7
aa(lp667
g20
aa(lp668
g3
aa(lp669
g15
aa(lp670
g3
aa(lp671
g17
aa(lp672
g41
aa(lp673
g43
aa(lp674
g43
aa(lp675
g46
aa(lp676
g20
aa(lp677
g3
aa(lp678
g15
aa(lp679
g3
aa(lp680
g20
aa(lp681
g5
aa(lp682
g7
aa(lp683
g15
aa(lp684
g20
aa(lp685
g20
aaa(lp686
(lp687
g20
aa(lp688
g3
aa(lp689
g5
aa(lp690
g15
aa(lp691
g17
aa(lp692
g20
aa(lp693
g20
aa(lp694
g20
aa(lp695
g20
aa(lp696
g7
aa(lp697
g17
aa(lp698
g20
aa(lp699
g7
aa(lp700
g17
aa(lp701
g3
aa(lp702
g15
aa(lp703
g15
aa(lp704
g5
aa(lp705
g20
aa(lp706
g7
aa(lp707
g7
aa(lp708
g3
aa(lp709
g7
aa(lp710
g20
aa(lp711
g5
aa(lp712
g7
aa(lp713
g20
aa(lp714
g17
aa(lp715
g20
aa(lp716
g15
aa(lp717
g17
aa(lp718
g15
aa(lp719
g41
aa(lp720
g43
aa(lp721
g43
aa(lp722
g46
aa(lp723
g3
aa(lp724
g15
aa(lp725
g15
aa(lp726
g3
aa(lp727
g20
aa(lp728
g15
aa(lp729
g15
aa(lp730
g20
aa(lp731
g3
aa(lp732
g15
aaa(lp733
(lp734
g20
aa(lp735
g20
aa(lp736
g17
aa(lp737
g20
aa(lp738
g17
aa(lp739
g3
aa(lp740
g5
aa(lp741
g5
aa(lp742
g3
aa(lp743
g7
aa(lp744
g17
aa(lp745
g20
aa(lp746
g7
aa(lp747
g15
aa(lp748
g3
aa(lp749
g7
aa(lp750
g7
aa(lp751
g3
aa(lp752
g7
aa(lp753
g20
aa(lp754
g5
aa(lp755
g7
aa(lp756
g3
aa(lp757
g5
aa(lp758
g5
aa(lp759
g7
aa(lp760
g220
aa(lp761
g222
aa(lp762
g222
aa(lp763
g222
aa(lp764
g222
aa(lp765
g222
aa(lp766
g3
aa(lp767
g43
aa(lp768
g43
aa(lp769
g46
aa(lp770
g15
aa(lp771
g17
aa(lp772
g15
aa(lp773
g17
aa(lp774
g3
aa(lp775
g17
aa(lp776
g5
aa(lp777
g17
aa(lp778
g17
aa(lp779
g3
aaa(lp780
(lp781
g5
aa(lp782
g5
aa(lp783
g17
aa(lp784
g15
aa(lp785
g3
aa(lp786
g5
aa(lp787
g5
aa(lp788
g15
aa(lp789
g17
aa(lp790
g20
aa(lp791
g17
aa(lp792
g20
aa(lp793
g17
aa(lp794
g17
aa(lp795
g15
aa(lp796
g15
aa(lp797
g17
aa(lp798
g3
aa(lp799
g7
aa(lp800
g7
aa(lp801
g7
aa(lp802
g3
aa(lp803
g3
aa(lp804
g5
aa(lp805
g17
aa(lp806
g5
aa(lp807
g41
aa(lp808
g43
aa(lp809
g43
aa(lp810
g43
aa(lp811
g43
aa(lp812
g43
aa(lp813
g43
aa(lp814
g43
aa(lp815
g43
aa(lp816
g46
aa(lp817
g17
aa(lp818
g20
aa(lp819
g3
aa(lp820
g5
aa(lp821
g17
aa(lp822
g3
aa(lp823
g7
aa(lp824
g15
aa(lp825
g3
aa(lp826
g15
aaa(lp827
(lp828
g5
aa(lp829
g17
aa(lp830
g3
aa(lp831
g5
aa(lp832
g15
aa(lp833
g7
aa(lp834
g5
aa(lp835
g17
aa(lp836
g210
ag211
aa(lp837
g213
ag214
aa(lp838
g216
ag217
aa(lp839
g20
aa(lp840
g17
aa(lp841
g15
aa(lp842
g15
aa(lp843
g5
aa(lp844
g3
aa(lp845
g7
aa(lp846
g3
aa(lp847
g15
aa(lp848
g7
aa(lp849
g15
aa(lp850
g7
aa(lp851
g7
aa(lp852
g3
aa(lp853
g7
aa(lp854
g41
aa(lp855
g43
aa(lp856
g43
aa(lp857
g43
aa(lp858
g43
aa(lp859
g43
aa(lp860
g43
aa(lp861
g43
aa(lp862
g43
aa(lp863
g46
aa(lp864
g7
aa(lp865
g7
aa(lp866
g3
aa(lp867
g3
aa(lp868
g5
aa(lp869
g7
aa(lp870
g5
aa(lp871
g3
aa(lp872
g17
aa(lp873
g20
aaa(lp874
(lp875
g17
aa(lp876
g3
aa(lp877
g17
aa(lp878
g20
aa(lp879
g20
aa(lp880
g15
aa(lp881
g7
aa(lp882
g17
aa(lp883
g266
ag267
aa(lp884
g269
ag270
aa(lp885
g272
ag273
aa(lp886
g17
aa(lp887
g20
aa(lp888
g20
aa(lp889
g17
aa(lp890
g15
aa(lp891
g5
aa(lp892
g3
aa(lp893
g3
aa(lp894
g15
aa(lp895
g15
aa(lp896
g5
aa(lp897
g17
aa(lp898
g15
aa(lp899
g7
aa(lp900
g20
aa(lp901
g41
aa(lp902
g43
aa(lp903
g43
aa(lp904
g46
aa(lp905
g513
aa(lp906
g513
aa(lp907
g513
aa(lp908
g513
aa(lp909
g513
aa(lp910
g520
aa(lp911
g15
aa(lp912
g7
aa(lp913
g15
aa(lp914
g17
aa(lp915
g15
aa(lp916
g3
aa(lp917
g17
aa(lp918
g15
aa(lp919
g20
aa(lp920
g3
aaa(lp921
(lp922
g20
aa(lp923
g15
aa(lp924
g17
aa(lp925
g7
aa(lp926
g15
aa(lp927
g20
aa(lp928
g5
aa(lp929
g3
aa(lp930
g17
aa(lp931
g3
aa(lp932
g5
aa(lp933
g3
aa(lp934
g15
aa(lp935
g20
aa(lp936
g7
aa(lp937
g15
aa(lp938
g17
aa(lp939
g20
aa(lp940
g15
aa(lp941
g5
aa(lp942
g20
aa(lp943
g15
aa(lp944
g17
aa(lp945
g3
aa(lp946
g15
aa(lp947
g17
aa(lp948
g41
aa(lp949
g43
aa(lp950
g43
aa(lp951
g46
aa(lp952
g17
aa(lp953
g17
aa(lp954
g20
aa(lp955
g17
aa(lp956
g20
aa(lp957
g17
aa(lp958
g7
aa(lp959
g17
aa(lp960
g15
aa(lp961
g3
aa(lp962
g5
aa(lp963
g3
aa(lp964
g17
aa(lp965
g15
aa(lp966
g5
aa(lp967
g17
aaa(lp968
(lp969
g15
aa(lp970
g20
aa(lp971
g3
aa(lp972
g5
aa(lp973
g5
aa(lp974
g15
aa(lp975
g15
aa(lp976
g15
aa(lp977
g3
aa(lp978
g15
aa(lp979
g17
aa(lp980
g20
aa(lp981
g5
aa(lp982
g5
aa(lp983
g17
aa(lp984
g3
aa(lp985
g17
aa(lp986
g15
aa(lp987
g5
aa(lp988
g5
aa(lp989
g15
aa(lp990
g3
aa(lp991
g15
aa(lp992
g17
aa(lp993
g17
aa(lp994
g5
aa(lp995
g41
aa(lp996
g43
aa(lp997
g43
aa(lp998
g46
aa(lp999
g15
aa(lp1000
g17
aa(lp1001
g5
aa(lp1002
g15
aa(lp1003
g15
aa(lp1004
g7
aa(lp1005
g17
aa(lp1006
g7
aa(lp1007
g7
aa(lp1008
g20
aa(lp1009
g17
aa(lp1010
g3
aa(lp1011
g17
aa(lp1012
g5
aa(lp1013
g5
aa(lp1014
g5
aaa(lp1015
(lp1016
g17
aa(lp1017
g7
aa(lp1018
g7
aa(lp1019
g20
aa(lp1020
g3
aa(lp1021
g15
aa(lp1022
g15
aa(lp1023
g3
aa(lp1024
g5
aa(lp1025
g5
aa(lp1026
g5
aa(lp1027
g3
aa(lp1028
g20
aa(lp1029
g17
aa(lp1030
g3
aa(lp1031
g20
aa(lp1032
g7
aa(lp1033
g17
aa(lp1034
g3
aa(lp1035
g7
aa(lp1036
g5
aa(lp1037
g3
aa(lp1038
g7
aa(lp1039
g20
aa(lp1040
g7
aa(lp1041
g17
aa(lp1042
g41
aa(lp1043
g43
aa(lp1044
g43
aa(lp1045
g46
aa(lp1046
g17
aa(lp1047
g5
aa(lp1048
g7
aa(lp1049
g3
aa(lp1050
g17
aa(lp1051
g3
aa(lp1052
g20
aa(lp1053
g3
aa(lp1054
g20
aa(lp1055
g17
aa(lp1056
g7
aa(lp1057
g5
aa(lp1058
g7
aa(lp1059
g3
aa(lp1060
g3
aa(lp1061
g20
aaa(lp1062
(lp1063
g20
aa(lp1064
g20
aa(lp1065
g7
aa(lp1066
g7
aa(lp1067
g3
aa(lp1068
g17
aa(lp1069
g20
aa(lp1070
g5
aa(lp1071
g7
aa(lp1072
g20
aa(lp1073
g17
aa(lp1074
g7
aa(lp1075
g5
aa(lp1076
g3
aa(lp1077
g20
aa(lp1078
g15
aa(lp1079
g15
aa(lp1080
g20
aa(lp1081
g15
aa(lp1082
g7
aa(lp1083
g3
aa(lp1084
g5
aa(lp1085
g17
aa(lp1086
g3
aa(lp1087
g3
aa(lp1088
g7
aa(lp1089
g41
aa(lp1090
g43
aa(lp1091
g43
aa(lp1092
g46
aa(lp1093
g3
aa(lp1094
g20
aa(lp1095
g17
aa(lp1096
g7
aa(lp1097
g5
aa(lp1098
g20
aa(lp1099
g20
aa(lp1100
g5
aa(lp1101
g17
aa(lp1102
g15
aa(lp1103
g17
aa(lp1104
g17
aa(lp1105
g3
aa(lp1106
g5
aa(lp1107
g3
aa(lp1108
g15
aaa(lp1109
(lp1110
g15
aa(lp1111
g5
aa(lp1112
g15
aa(lp1113
g3
aa(lp1114
g17
aa(lp1115
g17
aa(lp1116
g7
aa(lp1117
g5
aa(lp1118
g5
aa(lp1119
g3
aa(lp1120
g17
aa(lp1121
g3
aa(lp1122
g5
aa(lp1123
g17
aa(lp1124
g17
aa(lp1125
g20
aa(lp1126
g20
aa(lp1127
g17
aa(lp1128
g20
aa(lp1129
g20
aa(lp1130
g20
aa(lp1131
g3
aa(lp1132
g3
aa(lp1133
g3
aa(lp1134
g7
aa(lp1135
g15
aa(lp1136
g41
aa(lp1137
g43
aa(lp1138
g43
aa(lp1139
g46
aa(lp1140
g7
aa(lp1141
g7
aa(lp1142
g20
aa(lp1143
g5
aa(lp1144
g17
aa(lp1145
g15
aa(lp1146
g7
aa(lp1147
g3
aa(lp1148
g3
aa(lp1149
g15
aa(lp1150
g17
aa(lp1151
g3
aa(lp1152
g5
aa(lp1153
g15
aa(lp1154
g3
aa(lp1155
g5
aaa(lp1156
(lp1157
g20
aa(lp1158
g5
aa(lp1159
g3
aa(lp1160
g5
aa(lp1161
g15
aa(lp1162
g15
aa(lp1163
g3
aa(lp1164
g5
aa(lp1165
g20
aa(lp1166
g20
aa(lp1167
g7
aa(lp1168
g20
aa(lp1169
g3
aa(lp1170
g17
aa(lp1171
g7
aa(lp1172
g7
aa(lp1173
g15
aa(lp1174
g17
aa(lp1175
g17
aa(lp1176
g20
aa(lp1177
g3
aa(lp1178
g17
aa(lp1179
g7
aa(lp1180
g17
aa(lp1181
g20
aa(lp1182
g5
aa(lp1183
g41
aa(lp1184
g43
aa(lp1185
g43
aa(lp1186
g46
aa(lp1187
g15
aa(lp1188
g20
aa(lp1189
g7
aa(lp1190
g3
aa(lp1191
g17
aa(lp1192
g5
aa(lp1193
g15
aa(lp1194
g7
aa(lp1195
g17
aa(lp1196
g7
aa(lp1197
g3
aa(lp1198
g5
aa(lp1199
g5
aa(lp1200
g5
aa(lp1201
g20
aa(lp1202
g5
aaa(lp1203
(lp1204
g20
aa(lp1205
g15
aa(lp1206
g20
aa(lp1207
g20
aa(lp1208
g17
aa(lp1209
g20
aa(lp1210
g7
aa(lp1211
g17
aa(lp1212
g7
aa(lp1213
g20
aa(lp1214
g3
aa(lp1215
g15
aa(lp1216
g17
aa(lp1217
g3
aa(lp1218
g3
aa(lp1219
g5
aa(lp1220
g20
aa(lp1221
g17
aa(lp1222
g17
aa(lp1223
g17
aa(lp1224
g20
aa(lp1225
g3
aa(lp1226
g3
aa(lp1227
g15
aa(lp1228
g15
aa(lp1229
g20
aa(lp1230
g41
aa(lp1231
g43
aa(lp1232
g43
aa(lp1233
g46
aa(lp1234
g20
aa(lp1235
g17
aa(lp1236
g20
aa(lp1237
g7
aa(lp1238
g15
aa(lp1239
g17
aa(lp1240
g15
aa(lp1241
g7
aa(lp1242
g5
aa(lp1243
g20
aa(lp1244
g5
aa(lp1245
g15
aa(lp1246
g5
aa(lp1247
g15
aa(lp1248
g17
aa(lp1249
g5
aaa(lp1250
(lp1251
g3
aa(lp1252
g7
aa(lp1253
g5
aa(lp1254
g17
aa(lp1255
g5
aa(lp1256
g20
aa(lp1257
g5
aa(lp1258
g17
aa(lp1259
g5
aa(lp1260
g20
aa(lp1261
g5
aa(lp1262
g3
aa(lp1263
g3
aa(lp1264
g15
aa(lp1265
g5
aa(lp1266
g17
aa(lp1267
g20
aa(lp1268
g5
aa(lp1269
g7
aa(lp1270
g5
aa(lp1271
g17
aa(lp1272
g3
aa(lp1273
g17
aa(lp1274
g7
aa(lp1275
g15
aa(lp1276
g15
aa(lp1277
g41
aa(lp1278
g43
aa(lp1279
g43
aa(lp1280
g46
aa(lp1281
g17
aa(lp1282
g7
aa(lp1283
g7
aa(lp1284
g5
aa(lp1285
g17
aa(lp1286
g5
aa(lp1287
g20
aa(lp1288
g17
aa(lp1289
g15
aa(lp1290
g20
aa(lp1291
g15
aa(lp1292
g20
aa(lp1293
g3
aa(lp1294
g5
aa(lp1295
g15
aa(lp1296
g7
aaa(lp1297
(lp1298
g7
aa(lp1299
g17
aa(lp1300
g7
aa(lp1301
g3
aa(lp1302
g5
aa(lp1303
g20
aa(lp1304
g7
aa(lp1305
g17
aa(lp1306
g3
aa(lp1307
g7
aa(lp1308
g20
aa(lp1309
g20
aa(lp1310
g15
aa(lp1311
g5
aa(lp1312
g3
aa(lp1313
g20
aa(lp1314
g5
aa(lp1315
g3
aa(lp1316
g20
aa(lp1317
g17
aa(lp1318
g20
aa(lp1319
g3
aa(lp1320
g17
aa(lp1321
g3
aa(lp1322
g20
aa(lp1323
g7
aa(lp1324
g41
aa(lp1325
g43
aa(lp1326
g43
aa(lp1327
g46
aa(lp1328
g7
aa(lp1329
g20
aa(lp1330
g7
aa(lp1331
g20
aa(lp1332
g15
aa(lp1333
g7
aa(lp1334
g7
aa(lp1335
g5
aa(lp1336
g17
aa(lp1337
g7
aa(lp1338
g20
aa(lp1339
g5
aa(lp1340
g15
aa(lp1341
g15
aa(lp1342
g20
aa(lp1343
g17
aaa(lp1344
(lp1345
g15
aa(lp1346
g20
aa(lp1347
g5
aa(lp1348
g3
aa(lp1349
g17
aa(lp1350
g20
aa(lp1351
g17
aa(lp1352
g7
aa(lp1353
g20
aa(lp1354
g15
aa(lp1355
g15
aa(lp1356
g5
aa(lp1357
g20
aa(lp1358
g7
aa(lp1359
g5
aa(lp1360
g3
aa(lp1361
g7
aa(lp1362
g20
aa(lp1363
g7
aa(lp1364
g7
aa(lp1365
g15
aa(lp1366
g20
aa(lp1367
g17
aa(lp1368
g20
aa(lp1369
g7
aa(lp1370
g15
aa(lp1371
g41
aa(lp1372
g43
aa(lp1373
g43
aa(lp1374
g46
aa(lp1375
g3
aa(lp1376
g15
aa(lp1377
g3
aa(lp1378
g15
aa(lp1379
g17
aa(lp1380
g3
aa(lp1381
g15
aa(lp1382
g3
aa(lp1383
g20
aa(lp1384
g3
aa(lp1385
g7
aa(lp1386
g3
aa(lp1387
g15
aa(lp1388
g15
aa(lp1389
g5
aa(lp1390
g17
aaa(lp1391
(lp1392
g17
aa(lp1393
g20
aa(lp1394
g20
aa(lp1395
g17
aa(lp1396
g3
aa(lp1397
g5
aa(lp1398
g20
aa(lp1399
g17
aa(lp1400
g5
aa(lp1401
g5
aa(lp1402
g15
aa(lp1403
g5
aa(lp1404
g20
aa(lp1405
g15
aa(lp1406
g5
aa(lp1407
g20
aa(lp1408
g7
aa(lp1409
g17
aa(lp1410
g17
aa(lp1411
g5
aa(lp1412
g15
aa(lp1413
g7
aa(lp1414
g5
aa(lp1415
g3
aa(lp1416
g15
aa(lp1417
g7
aa(lp1418
g41
aa(lp1419
g43
aa(lp1420
g43
aa(lp1421
g46
aa(lp1422
g20
aa(lp1423
g3
aa(lp1424
g20
aa(lp1425
g20
aa(lp1426
g20
aa(lp1427
g15
aa(lp1428
g15
aa(lp1429
g7
aa(lp1430
g20
aa(lp1431
g3
aa(lp1432
g15
aa(lp1433
g20
aa(lp1434
g15
aa(lp1435
g3
aa(lp1436
g3
aa(lp1437
g7
aaa(lp1438
(lp1439
g5
aa(lp1440
g17
aa(lp1441
g3
aa(lp1442
g15
aa(lp1443
g15
aa(lp1444
g20
aa(lp1445
g15
aa(lp1446
g17
aa(lp1447
g15
aa(lp1448
g17
aa(lp1449
g7
aa(lp1450
g5
aa(lp1451
g5
aa(lp1452
g17
aa(lp1453
g17
aa(lp1454
g20
aa(lp1455
g5
aa(lp1456
g5
aa(lp1457
g15
aa(lp1458
g5
aa(lp1459
g3
aa(lp1460
g5
aa(lp1461
g20
aa(lp1462
g7
aa(lp1463
g3
aa(lp1464
g7
aa(lp1465
g41
aa(lp1466
g43
aa(lp1467
g43
aa(lp1468
g46
aa(lp1469
g7
aa(lp1470
g17
aa(lp1471
g15
aa(lp1472
g7
aa(lp1473
g20
aa(lp1474
g5
aa(lp1475
g7
aa(lp1476
g7
aa(lp1477
g20
aa(lp1478
g20
aa(lp1479
g7
aa(lp1480
g7
aa(lp1481
g5
aa(lp1482
g7
aa(lp1483
g20
aa(lp1484
g3
aaa.