(lp0
(lp1
S'grass_0.png'
p2
aS'grass_3.png'
p3
ag2
aS'grass_4.png'
p4
ag4
aS'grass_2.png'
p5
ag4
ag3
ag2
ag2
ag5
ag2
aS'grass_5.png'
p6
ag4
ag5
ag6
ag5
ag3
ag2
ag4
ag3
ag2
ag3
ag4
ag4
aa(lp7
g3
ag5
aS'grass_1.png'
p8
ag4
ag4
ag8
ag2
ag6
ag6
ag6
ag8
ag4
ag3
ag8
ag3
ag4
ag5
ag4
ag4
ag5
ag3
ag2
ag3
ag3
ag5
aa(lp9
g3
ag8
ag5
ag8
ag4
ag6
ag2
ag8
ag8
ag5
ag3
ag3
ag6
ag4
ag2
ag5
ag5
ag5
ag2
ag3
ag4
ag3
ag3
ag8
ag4
aa(lp10
g3
ag5
ag5
ag3
ag5
ag8
ag6
ag4
ag3
ag6
ag6
ag2
ag2
ag3
ag5
ag6
ag5
ag3
ag3
aS'casa_3.png'
p11
aS'casa_4.png'
p12
aS'casa_5.png'
p13
ag3
ag2
ag2
aa(lp14
g3
ag6
ag4
ag8
ag8
ag2
ag6
ag8
ag3
ag4
ag3
ag5
ag6
ag4
ag6
ag2
ag2
ag2
ag2
aS'casa_0.png'
p15
aS'casa_1.png'
p16
aS'casa_2.png'
p17
ag4
ag6
ag3
aa(lp18
g8
ag5
ag4
ag4
ag3
ag5
ag4
ag4
ag2
ag8
ag8
ag8
ag5
ag2
ag4
ag6
ag4
ag5
ag2
ag2
ag2
ag2
ag3
ag5
ag8
aa(lp19
g2
ag3
ag8
ag2
ag8
ag5
ag3
ag4
ag8
ag8
ag3
ag8
aS'water_grass_topleft_0.png'
p20
aS'water_grass_top_0.png'
p21
ag21
ag21
aS'water_grass_topright_0.png'
p22
ag8
ag2
ag2
ag2
ag8
ag6
ag2
ag5
aa(lp23
g4
ag2
ag6
ag5
ag4
ag3
ag2
ag5
ag3
ag3
ag8
ag3
aS'water_grass_left_0.png'
p24
aS'water_mid_0.png'
p25
ag25
ag25
aS'water_grass_right_0.png'
p26
ag2
ag5
ag3
ag3
ag2
ag4
ag3
ag5
aa(lp27
g6
ag4
ag6
ag2
ag8
ag5
ag3
ag5
ag2
ag4
ag6
ag4
ag24
ag25
ag25
ag25
ag26
ag4
ag2
ag3
ag2
ag5
ag4
ag2
ag5
aa(lp28
g4
ag5
ag3
ag11
ag12
ag13
ag6
ag2
ag2
ag6
ag4
ag4
ag24
ag25
ag25
ag25
ag26
ag8
ag6
ag3
ag2
ag5
ag2
ag6
ag6
aa(lp29
g8
ag3
ag2
ag15
ag16
ag17
ag5
ag2
ag4
ag5
ag8
ag5
ag24
ag25
ag25
ag25
ag26
ag3
ag8
ag6
ag4
ag5
ag8
ag2
ag4
aa(lp30
g5
ag3
ag3
ag5
ag2
ag6
ag3
ag11
ag12
ag13
ag5
ag8
ag24
ag25
ag25
ag25
ag26
ag5
ag3
ag2
ag6
ag2
ag5
ag5
ag6
aa(lp31
g8
ag6
ag2
ag8
ag5
ag4
ag5
ag15
ag16
ag17
ag2
ag6
ag24
ag25
ag25
ag25
ag26
ag8
ag5
ag4
ag2
ag5
ag2
ag2
ag5
aa(lp32
g5
ag4
ag5
ag3
ag3
ag8
ag8
ag4
ag8
ag3
ag6
ag2
ag24
ag25
ag25
ag25
ag26
ag2
ag8
ag6
ag2
ag6
ag4
ag5
ag8
aa(lp33
g3
ag2
ag5
ag8
ag2
ag3
ag8
ag3
ag4
ag8
ag8
ag8
aS'water_grass_bottomleft_0.png'
p34
aS'water_grass_bottom_0.png'
p35
ag35
ag35
aS'water_grass_bottomright_0.png'
p36
aS'grass_0.png'
p37
ag3
ag4
ag8
ag4
ag6
ag2
ag5
aa(lp38
g5
ag4
ag5
ag3
ag8
ag3
ag8
ag8
ag3
ag4
ag5
ag3
ag4
ag8
ag2
ag6
ag2
ag8
ag5
ag8
ag6
ag4
ag8
ag2
ag4
aa(lp39
g6
ag5
ag4
ag4
ag8
ag6
ag4
ag2
ag4
ag6
ag3
ag4
ag4
ag3
ag8
ag4
ag2
ag4
ag3
ag4
ag3
ag2
ag6
ag5
ag2
aa(lp40
g3
ag6
ag3
ag4
ag2
ag8
ag6
ag2
ag3
ag5
ag5
ag4
ag5
ag4
ag2
ag11
ag12
ag13
ag4
ag8
ag3
ag8
ag2
ag6
ag8
aa(lp41
g5
ag3
ag5
ag3
ag4
ag4
ag3
ag3
ag6
ag2
ag2
ag4
ag6
ag5
ag3
ag15
ag16
ag17
ag2
ag2
ag8
ag2
ag6
ag8
ag4
aa(lp42
g8
ag6
ag5
ag6
ag8
ag2
ag3
ag4
ag3
ag4
ag2
ag2
ag5
ag3
ag5
ag6
ag3
ag2
ag3
ag8
ag8
ag4
ag8
ag8
ag2
aa(lp43
g8
ag8
ag6
ag5
ag2
ag8
ag6
ag6
ag3
ag2
ag2
ag4
ag3
ag5
ag5
ag3
ag8
ag3
ag5
ag3
ag3
ag4
ag5
ag3
ag2
aa(lp44
g4
ag2
ag3
ag8
ag3
ag2
ag2
ag6
ag8
ag5
ag4
ag4
ag2
ag2
ag4
ag4
ag2
ag5
ag6
ag6
ag3
ag3
ag3
ag3
ag6
aa(lp45
g2
ag4
ag2
ag4
ag4
ag2
ag2
ag8
ag4
ag8
ag4
ag3
ag4
ag5
ag4
ag2
ag6
ag6
ag2
ag5
ag2
ag8
ag8
ag3
ag8
aa.