(lp0
(lp1
S'tree_top_0.png'
p2
aS'tree_bottom_3.png'
p3
ag3
ag3
ag3
ag3
ag3
ag3
aS'grass_0.png'
p4
ag2
ag2
ag4
ag2
ag4
ag2
ag2
aS'grass_3.png'
p5
ag2
aS'dirt_path_single_vertical.png'
p6
ag2
aa(lp7
g2
ag2
aS'grass_0.png'
p8
aS'grass_2.png'
p9
ag9
ag9
ag2
ag2
ag2
ag3
ag2
ag4
ag3
ag2
ag2
ag2
ag4
ag2
ag6
ag2
aa(lp10
g2
ag2
aS'dirt_path_single_verticaltop.png'
p11
aS'grass_4.png'
p12
ag12
ag2
ag2
ag3
ag3
ag12
ag3
ag2
aS'grass_2.png'
p13
ag3
ag3
ag2
ag2
ag2
ag6
ag2
aa(lp14
g2
ag2
ag6
aS'grass_3.png'
p15
aS'grass_1.png'
p16
ag3
ag3
aS'grass_5.png'
p17
ag17
ag16
ag12
ag2
ag4
ag9
ag2
ag3
ag3
ag3
ag6
ag2
aa(lp18
g2
ag3
ag2
aS'dirt_path_top.png'
p19
ag19
ag2
ag19
ag19
ag19
aS'dirt_path_topright.png'
p20
ag15
ag2
ag2
ag2
ag3
aS'dirt_path_topleft.png'
p21
ag19
ag19
aS'dirt_path_threeway_right.png'
p22
ag2
aa(lp23
g2
ag12
ag3
ag2
ag2
ag2
aS'dirt_path_bottom.png'
p24
ag24
aS'dirt_path_left.png'
p25
aS'dirt_path_right.png'
p26
ag12
ag3
ag3
ag3
ag12
ag6
ag2
ag24
aS'dirt_path_bottomright.png'
p27
ag2
aa(lp28
g2
ag2
ag17
ag3
ag3
ag2
ag16
ag2
ag25
ag26
ag2
ag2
ag15
ag17
ag2
ag6
ag2
ag9
ag12
ag2
aa(lp29
g2
ag3
ag16
ag17
ag4
ag3
ag4
ag3
ag25
ag26
ag3
ag3
ag12
ag17
ag3
ag6
ag2
ag4
ag17
ag2
aa(lp30
g2
ag12
ag9
ag9
ag2
ag2
ag2
ag2
ag25
ag26
ag2
ag17
ag4
ag2
ag4
ag6
ag3
ag2
ag2
ag2
aa(lp31
g2
ag9
ag2
ag2
ag3
ag2
ag2
ag3
ag25
ag26
ag3
ag4
ag15
ag2
ag12
ag6
ag4
ag3
ag3
ag2
aa(lp32
g2
ag15
ag3
ag3
ag4
ag2
ag3
ag2
ag25
ag26
ag15
ag4
ag16
ag2
ag15
aS'dirt_path_threeway_left.png'
p33
ag19
ag19
ag20
ag2
aa(lp34
g2
ag2
ag2
ag2
ag2
ag2
aS'uncommon.png'
p35
ag3
ag25
ag26
ag9
ag2
ag15
ag2
ag2
ag2
ag24
ag24
aS'dirt_path_curve_topleft.png'
p36
ag2
aa(lp37
g2
ag3
ag3
ag3
ag3
ag3
aS'common.png'
p38
ag38
ag25
ag26
ag4
ag3
ag16
ag2
ag3
ag2
ag4
ag15
ag6
ag2
aa(lp39
g2
ag38
ag38
ag38
ag38
ag38
ag2
ag38
ag25
ag26
ag2
ag2
ag15
ag3
ag9
ag3
ag2
ag2
ag6
ag2
aa(lp40
g2
ag38
ag38
ag38
ag38
ag38
ag3
ag38
ag25
ag26
ag3
ag3
ag12
ag15
ag16
ag4
ag3
ag3
ag6
ag2
aa(lp41
g2
ag21
ag19
ag19
ag2
ag19
ag19
ag19
aS'dirt_path_mid.png'
p42
ag42
ag19
ag19
ag2
ag2
ag2
ag19
ag19
ag19
ag22
ag2
aa(lp43
g2
aS'dirt_path_curve_topright.png'
p44
ag38
ag38
ag3
ag38
ag2
ag38
ag2
ag2
ag2
ag38
ag3
ag3
ag2
ag38
ag38
ag38
ag38
ag2
aa(lp45
g2
ag6
ag38
ag38
ag38
ag38
ag3
ag38
ag3
ag3
ag3
ag38
ag38
ag35
ag3
ag38
ag3
ag38
ag38
ag2
aa(lp46
g2
ag6
ag38
ag38
ag38
ag38
ag38
ag38
ag38
ag38
ag38
ag38
ag38
ag38
ag38
ag38
ag2
ag35
ag35
ag2
aa(lp47
g3
ag6
ag3
ag3
ag3
ag3
ag3
ag3
ag3
ag3
ag3
ag3
ag3
ag3
ag3
ag3
ag3
ag3
ag3
ag3
aa.