(lp0
(lp1
I0
aI0
aI0
aI0
aI0
aI0
aI0
aI0
aI0
aI0
aI0
aI0
aI0
aI0
aI0
aI0
aI0
aI0
aI0
aI0
aI0
aI0
aI0
aI0
aI0
aI0
aI0
aI0
aI0
aI0
aI0
aI0
aI0
aI0
aI0
aI0
aI0
aI0
aI0
aI0
aa(lp2
I0
aI0
aI0
aI0
aI0
aI0
aI0
aI0
aI0
aI0
aI0
aI0
aI0
aI0
aI0
aI0
aI0
aI0
aI0
aI0
aI0
aI0
a(lp3
S'GIALLO'
p4
aa(lp5
g4
aa(lp6
g4
aaI0
aI0
aI0
a(lp7
S'VIOLA'
p8
aS'OK'
p9
aaI0
aI0
aI0
aI0
aI0
aI0
aI0
aI0
aI0
aI0
aI0
aa(lp10
I0
aI0
aI0
aI0
aI0
aI0
aI0
aI0
aI0
aI0
aI0
aI0
aI0
aI0
a(lp11
S'BLUE'
p12
aa(lp13
g12
aa(lp14
g12
aaI0
a(lp15
S'GRIGIO2'
p16
aa(lp17
g16
aaI0
aI0
a(lp18
g4
aa(lp19
g4
aa(lp20
g4
aa(lp21
S'FIRE'
p22
aa(lp23
g22
aaI0
a(lp24
g8
ag9
aa(lp25
g8
ag9
aaI0
aI0
aI0
aI0
aI0
aI0
aI0
aI0
aI0
aI0
aa(lp26
I0
aI0
aI0
aI0
aI0
aI0
aI0
aI0
aI0
aI0
aI0
aI0
aI0
aI0
aI0
aI0
aI0
a(lp27
g12
aaI0
a(lp28
g16
aaI0
aI0
a(lp29
g4
aa(lp30
g4
aaI0
a(lp31
g22
aa(lp32
g22
aa(lp33
g22
aaI0
a(lp34
g8
ag9
aa(lp35
g8
ag9
aaI0
aI0
aI0
aI0
aI0
aI0
aI0
aI0
aI0
aa(lp36
I0
aI0
aI0
aI0
aI0
aI0
aI0
aI0
aI0
aI0
aI0
aI0
aI0
aI0
aI0
aI0
aI0
a(lp37
S'GRIGIO'
p38
aa(lp39
g16
aa(lp40
g16
aa(lp41
g16
aaI0
a(lp42
g4
aaI0
a(lp43
g22
aa(lp44
g22
aa(lp45
g22
aa(lp46
g22
aaI0
aI0
a(lp47
g8
ag9
aaI0
aI0
aI0
aI0
aI0
aI0
aI0
aI0
aI0
aa(lp48
I0
aI0
aI0
aI0
aI0
aI0
aI0
aI0
aI0
aI0
aI0
aI0
aI0
aI0
aI0
aI0
aI0
a(lp49
g38
aa(lp50
g16
aa(lp51
g16
aaI0
aI0
a(lp52
g4
aaI0
a(lp53
g22
aa(lp54
g22
aa(lp55
g22
aaI0
aI0
aI0
a(lp56
g8
ag9
aaI0
aI0
aI0
aI0
aI0
aI0
aI0
aI0
aI0
aa(lp57
I0
aI0
aI0
aI0
a(lp58
g38
aa(lp59
g38
aa(lp60
g38
aa(lp61
g38
aa(lp62
g38
aa(lp63
g38
aa(lp64
g38
aa(lp65
g38
aa(lp66
g38
aa(lp67
g38
aa(lp68
g38
aa(lp69
g38
aaI0
aI0
aI0
a(lp70
g16
aaI0
aI0
a(lp71
g4
aaI0
aI0
a(lp72
g8
ag9
aaI0
aI0
aI0
aI0
a(lp73
g8
ag9
aaI0
aI0
aI0
aI0
aI0
aI0
aI0
aI0
aI0
aa(lp74
I0
aI0
aI0
aI0
a(lp75
g38
aaI0
a(lp76
g12
aa(lp77
g12
aa(lp78
g12
aa(lp79
g12
aa(lp80
g12
aa(lp81
g12
aaI0
aI0
aI0
aI0
a(lp82
g38
aaI0
aI0
a(lp83
g16
aaI0
aI0
a(lp84
g4
aaI0
aI0
aI0
a(lp85
g8
ag9
aaI0
aI0
a(lp86
g8
ag9
aaI0
aI0
aI0
aI0
aI0
aI0
aI0
aI0
aI0
aI0
aa(lp87
I0
aI0
aI0
aI0
aI0
a(lp88
g38
aa(lp89
g12
aaI0
aI0
aI0
aI0
a(lp90
g12
aaI0
aI0
aI0
a(lp91
g38
aaI0
aI0
aI0
a(lp92
g16
aaI0
aI0
aI0
a(lp93
g4
aaI0
aI0
a(lp94
g8
ag9
aa(lp95
g8
ag9
aa(lp96
g8
ag9
aa(lp97
g8
ag9
aaI0
a(lp98
g4
aaI0
aI0
aI0
aI0
aI0
aI0
aI0
aI0
aa(lp99
I0
aI0
aI0
aI0
aI0
a(lp100
g38
aa(lp101
g12
aaI0
aI0
aI0
aI0
a(lp102
g12
aaI0
aI0
a(lp103
g38
aaI0
aI0
aI0
aI0
a(lp104
g16
aa(lp105
g16
aaI0
aI0
a(lp106
g4
aaI0
aI0
aI0
aI0
aI0
aI0
a(lp107
g4
aa(lp108
g4
aaI0
aI0
aI0
aI0
aI0
aI0
aI0
aI0
aa(lp109
I0
aI0
aI0
aI0
aI0
a(lp110
g38
aa(lp111
g12
aaI0
aI0
aI0
aI0
a(lp112
g12
aaI0
a(lp113
g38
aaI0
aI0
aI0
aI0
aI0
aI0
aI0
aI0
aI0
a(lp114
g4
aaI0
aI0
aI0
aI0
a(lp115
g4
aa(lp116
g4
aa(lp117
g4
aaI0
aI0
aI0
aI0
aI0
aI0
aI0
aI0
aI0
aa(lp118
I0
aI0
aI0
aI0
aI0
a(lp119
g38
aa(lp120
g12
aaI0
aI0
aI0
a(lp121
g12
aaI0
a(lp122
g38
aa(lp123
g38
aaI0
aI0
aI0
aI0
aI0
aI0
aI0
aI0
aI0
aI0
a(lp124
g4
aa(lp125
g4
aa(lp126
g4
aa(lp127
g4
aaI0
aI0
aI0
aI0
aI0
aI0
aI0
aI0
aI0
aI0
aI0
aI0
aa(lp128
I0
aI0
aI0
aI0
aI0
a(lp129
g38
aa(lp130
g12
aaI0
aI0
aI0
aI0
a(lp131
g38
aaI0
aI0
aI0
aI0
aI0
aI0
aI0
aI0
aI0
aI0
aI0
aI0
aI0
aI0
aI0
aI0
aI0
aI0
aI0
aI0
aI0
aI0
aI0
aI0
aI0
aI0
aI0
aI0
aa(lp132
I0
aI0
aI0
aI0
aI0
a(lp133
g38
aa(lp134
g12
aaI0
aI0
aI0
aI0
aI0
aI0
aI0
aI0
aI0
aI0
aI0
aI0
aI0
aI0
aI0
aI0
aI0
aI0
aI0
aI0
aI0
aI0
aI0
aI0
aI0
aI0
aI0
aI0
aI0
aI0
aI0
aI0
aI0
aa(lp135
I0
aI0
a(lp136
g12
aaI0
aI0
a(lp137
g38
aa(lp138
g12
aaI0
aI0
aI0
aI0
aI0
aI0
aI0
aI0
aI0
aI0
aI0
aI0
aI0
aI0
aI0
aI0
aI0
aI0
aI0
aI0
aI0
aI0
aI0
aI0
aI0
aI0
aI0
aI0
aI0
aI0
aI0
aI0
aI0
aa(lp139
I0
aI0
a(lp140
g12
aa(lp141
g12
aa(lp142
g12
aa(lp143
g38
aa(lp144
g12
aaI0
aI0
a(lp145
g12
aa(lp146
g12
aaI0
aI0
aI0
aI0
aI0
aI0
aI0
aI0
aI0
aI0
aI0
aI0
aI0
aI0
aI0
aI0
aI0
aI0
aI0
aI0
aI0
aI0
aI0
aI0
aI0
aI0
aI0
aI0
aI0
aa(lp147
I0
aI0
aI0
a(lp148
g12
aa(lp149
g12
aa(lp150
g12
aa(lp151
g12
aaI0
aI0
a(lp152
g12
aaI0
aI0
aI0
aI0
aI0
aI0
aI0
aI0
aI0
aI0
aI0
aI0
aI0
aI0
aI0
aI0
aI0
aI0
aI0
aI0
aI0
aI0
aI0
aI0
aI0
aI0
aI0
aI0
aI0
aI0
aa(lp153
I0
aI0
aI0
a(lp154
g12
aaI0
aI0
aI0
aI0
aI0
aI0
a(lp155
g12
aaI0
aI0
aI0
aI0
aI0
aI0
aI0
aI0
aI0
aI0
aI0
aI0
aI0
aI0
aI0
aI0
aI0
aI0
aI0
aI0
aI0
aI0
aI0
aI0
aI0
aI0
aI0
aI0
aI0
aa(lp156
I0
aI0
aI0
aI0
aI0
aI0
aI0
aI0
aI0
aI0
aI0
a(lp157
g12
aaI0
aI0
aI0
aI0
aI0
aI0
aI0
aI0
aI0
aI0
aI0
aI0
aI0
aI0
aI0
aI0
aI0
aI0
aI0
aI0
aI0
aI0
aI0
aI0
aI0
aI0
aI0
aI0
aa(lp158
I0
aI0
aI0
a(lp159
g12
aaI0
aI0
aI0
aI0
aI0
aI0
aI0
aI0
a(lp160
g12
aa(lp161
g12
aa(lp162
g12
aaI0
a(lp163
g12
aa(lp164
g12
aaI0
aI0
aI0
aI0
aI0
aI0
aI0
aI0
aI0
aI0
aI0
aI0
aI0
aI0
aI0
aI0
aI0
aI0
aI0
aI0
aI0
aI0
aa(lp165
I0
aI0
aI0
a(lp166
g12
aaI0
aI0
aI0
aI0
aI0
aI0
aI0
aI0
aI0
aI0
aI0
aI0
aI0
a(lp167
g12
aa(lp168
g12
aaI0
aI0
aI0
aI0
aI0
aI0
aI0
aI0
aI0
aI0
aI0
aI0
aI0
aI0
aI0
aI0
aI0
aI0
aI0
aI0
aI0
aa(lp169
I0
aI0
aI0
aI0
a(lp170
g12
aaI0
aI0
aI0
aI0
aI0
aI0
aI0
aI0
aI0
aI0
aI0
aI0
a(lp171
g12
aaI0
aI0
aI0
aI0
aI0
aI0
aI0
aI0
aI0
aI0
aI0
aI0
aI0
aI0
aI0
aI0
aI0
aI0
aI0
aI0
aI0
aI0
aa(lp172
I0
aI0
aI0
aI0
a(lp173
g12
aaI0
a(lp174
g12
aa(lp175
g12
aaI0
aI0
aI0
aI0
aI0
aI0
aI0
aI0
a(lp176
g12
aaI0
aI0
aI0
aI0
aI0
aI0
aI0
aI0
aI0
aI0
aI0
aI0
aI0
aI0
aI0
aI0
aI0
aI0
aI0
aI0
aI0
aI0
aI0
aa(lp177
I0
aI0
aI0
aI0
a(lp178
g12
aaI0
aI0
aI0
a(lp179
g12
aaI0
aI0
aI0
aI0
aI0
aI0
a(lp180
g12
aaI0
aI0
aI0
aI0
aI0
aI0
aI0
aI0
aI0
aI0
aI0
aI0
aI0
aI0
aI0
aI0
aI0
aI0
aI0
aI0
aI0
aI0
aI0
aI0
aa(lp181
I0
aI0
aI0
aI0
aI0
aI0
aI0
aI0
aI0
aI0
aI0
aI0
aI0
aI0
a(lp182
g12
aaI0
aI0
aI0
aI0
aI0
aI0
aI0
aI0
aI0
aI0
aI0
aI0
aI0
aI0
aI0
aI0
aI0
aI0
aI0
aI0
aI0
aI0
aI0
aI0
aI0
aa(lp183
I0
aI0
aI0
aI0
aI0
aI0
aI0
aI0
aI0
aI0
aI0
aI0
aI0
a(lp184
g12
aaI0
aI0
aI0
aI0
aI0
aI0
aI0
aI0
aI0
aI0
aI0
aI0
aI0
aI0
aI0
aI0
aI0
aI0
aI0
aI0
aI0
aI0
aI0
aI0
aI0
aI0
aa(lp185
I0
aI0
aI0
aI0
aI0
aI0
aI0
aI0
aI0
aI0
aI0
a(lp186
g12
aaI0
aI0
aI0
aI0
aI0
aI0
aI0
aI0
aI0
aI0
aI0
aI0
aI0
aI0
aI0
aI0
aI0
aI0
aI0
aI0
aI0
aI0
aI0
aI0
aI0
aI0
aI0
aI0
aa(lp187
I0
aI0
aI0
aI0
aI0
aI0
aI0
aI0
aI0
aI0
a(lp188
g12
aaI0
aI0
aI0
aI0
aI0
aI0
aI0
aI0
aI0
aI0
aI0
aI0
aI0
aI0
aI0
aI0
aI0
aI0
aI0
aI0
aI0
aI0
aI0
aI0
aI0
aI0
aI0
aI0
aI0
aa(lp189
I0
aI0
aI0
aI0
aI0
aI0
a(lp190
g12
aaI0
aI0
aI0
aI0
aI0
aI0
aI0
aI0
aI0
aI0
aI0
aI0
aI0
aI0
aI0
aI0
aI0
aI0
aI0
aI0
aI0
aI0
aI0
aI0
aI0
aI0
aI0
aI0
aI0
aI0
aI0
aI0
aI0
aa(lp191
I0
aI0
aI0
aI0
aI0
aI0
a(lp192
g12
aaI0
aI0
a(lp193
g12
aaI0
aI0
aI0
aI0
aI0
aI0
aI0
aI0
aI0
aI0
aI0
aI0
aI0
aI0
aI0
aI0
aI0
aI0
aI0
aI0
aI0
aI0
aI0
aI0
aI0
aI0
aI0
aI0
aI0
aI0
aa(lp194
I0
aI0
aI0
aI0
aI0
aI0
a(lp195
g12
aaI0
a(lp196
g12
aaI0
aI0
aI0
aI0
aI0
aI0
aI0
aI0
aI0
aI0
aI0
aI0
aI0
aI0
aI0
aI0
aI0
aI0
aI0
aI0
aI0
aI0
aI0
aI0
aI0
aI0
aI0
aI0
aI0
aI0
aI0
aa(lp197
I0
aI0
aI0
aI0
aI0
aI0
a(lp198
g12
aaI0
a(lp199
g12
aaI0
aI0
aI0
aI0
aI0
aI0
aI0
aI0
aI0
aI0
aI0
aI0
aI0
aI0
aI0
aI0
aI0
aI0
aI0
aI0
aI0
aI0
aI0
aI0
aI0
aI0
aI0
aI0
aI0
aI0
aI0
aa(lp200
I0
aI0
aI0
aI0
aI0
a(lp201
g12
aa(lp202
g12
aa(lp203
g12
aaI0
aI0
aI0
aI0
aI0
aI0
aI0
aI0
aI0
aI0
aI0
aI0
aI0
aI0
aI0
aI0
aI0
aI0
aI0
aI0
aI0
aI0
aI0
aI0
aI0
aI0
aI0
aI0
aI0
aI0
aI0
aI0
aa(lp204
I0
aI0
aI0
aI0
aI0
aI0
aI0
aI0
aI0
aI0
aI0
aI0
aI0
aI0
aI0
aI0
aI0
aI0
aI0
aI0
aI0
aI0
aI0
aI0
aI0
aI0
aI0
aI0
aI0
aI0
aI0
aI0
aI0
aI0
aI0
aI0
aI0
aI0
aI0
aI0
aa(lp205
I0
aI0
aI0
aI0
aI0
aI0
aI0
aI0
aI0
aI0
aI0
aI0
aI0
aI0
aI0
aI0
aI0
aI0
aI0
aI0
aI0
aI0
aI0
aI0
aI0
aI0
aI0
aI0
aI0
aI0
aI0
aI0
aI0
aI0
aI0
aI0
aI0
aI0
aI0
aI0
aa(lp206
I0
aI0
aI0
aI0
aI0
aI0
aI0
aI0
aI0
aI0
aI0
aI0
aI0
aI0
aI0
aI0
aI0
aI0
aI0
aI0
aI0
aI0
aI0
aI0
aI0
aI0
aI0
aI0
aI0
aI0
aI0
aI0
aI0
aI0
aI0
aI0
aI0
aI0
aI0
aI0
aa(lp207
I0
aI0
aI0
aI0
aI0
aI0
aI0
aI0
aI0
aI0
aI0
aI0
aI0
aI0
aI0
aI0
aI0
aI0
aI0
aI0
aI0
aI0
aI0
aI0
aI0
aI0
aI0
aI0
aI0
aI0
aI0
aI0
aI0
aI0
aI0
aI0
aI0
aI0
aI0
aI0
aa(lp208
I0
aI0
aI0
aI0
aI0
aI0
aI0
aI0
aI0
aI0
aI0
aI0
aI0
aI0
aI0
aI0
aI0
aI0
aI0
aI0
aI0
aI0
aI0
aI0
aI0
aI0
aI0
aI0
aI0
aI0
aI0
aI0
aI0
aI0
aI0
aI0
aI0
aI0
aI0
aI0
aa(lp209
I0
aI0
aI0
aI0
aI0
aI0
aI0
aI0
aI0
aI0
aI0
aI0
aI0
aI0
aI0
aI0
aI0
aI0
aI0
aI0
aI0
aI0
aI0
aI0
aI0
aI0
aI0
aI0
aI0
aI0
aI0
aI0
aI0
aI0
aI0
aI0
aI0
aI0
aI0
aI0
aa(lp210
I0
aI0
aI0
aI0
aI0
aI0
aI0
aI0
aI0
aI0
aI0
aI0
aI0
aI0
aI0
aI0
aI0
aI0
aI0
aI0
aI0
aI0
aI0
aI0
aI0
aI0
aI0
aI0
aI0
aI0
aI0
aI0
aI0
aI0
aI0
aI0
aI0
aI0
aI0
aI0
aa.