(lp0
(lp1
(lp2
S'FIRE'
p3
aa(lp4
g3
aa(lp5
S'VIOLA'
p6
aS'OK'
p7
aa(lp8
g3
aa(lp9
S'GIALLO'
p10
aa(lp11
g3
aa(lp12
g3
aaa(lp13
(lp14
g3
aa(lp15
g3
aa(lp16
g6
ag7
aa(lp17
g6
ag7
aa(lp18
g6
ag7
aa(lp19
g6
ag7
aa(lp20
g3
aaa(lp21
(lp22
g10
aa(lp23
g10
aa(lp24
g10
aa(lp25
g3
aa(lp26
g6
ag7
aa(lp27
g6
ag7
aa(lp28
g10
aaa(lp29
(lp30
g10
aa(lp31
g6
ag7
aa(lp32
g10
aa(lp33
g6
ag7
aa(lp34
g3
aa(lp35
g10
aa(lp36
g3
aaa(lp37
(lp38
g3
aa(lp39
g6
ag7
aa(lp40
g6
ag7
aa(lp41
g10
aa(lp42
g10
aa(lp43
g3
aa(lp44
g3
aaa(lp45
(lp46
g3
aa(lp47
g3
aa(lp48
g10
aa(lp49
g6
ag7
aa(lp50
g10
aa(lp51
g3
aa(lp52
g3
aaa(lp53
(lp54
g3
aa(lp55
g3
aa(lp56
g3
aa(lp57
g6
ag7
aa(lp58
g6
ag7
aa(lp59
g6
ag7
aa(lp60
g3
aaa.