(lp0
(lp1
S'grass_2.png'
p2
aS'grass_4.png'
p3
aS'grass_1.png'
p4
ag2
aS'grass_3.png'
p5
aS'grass_0.png'
p6
ag4
ag6
aS'grass_0.png'
p7
ag7
ag7
ag7
ag7
ag7
ag7
ag7
aS'grass_3.png'
p8
aS'grass_1.png'
p9
ag9
ag3
aa(lp10
g2
aS'grass_2.png'
p11
aS'grass_0.png'
p12
ag11
ag11
ag11
aS'grass_4.png'
p13
aS'grass_1.png'
p14
ag2
ag5
aS'grass_5.png'
p15
ag7
ag3
ag2
ag3
ag3
ag7
aS'grass_4.png'
p16
ag16
ag6
aa(lp17
g6
ag2
aS'grass_0.png'
p18
aS'grass_2.png'
p19
ag13
ag13
ag4
ag4
ag16
ag16
aS'grass_3.png'
p20
ag9
aS'grass_2.png'
p21
ag4
ag6
ag3
ag2
ag20
ag16
ag19
aa(lp22
g4
ag5
ag20
ag20
ag14
ag16
aS'grass_5.png'
p23
aS'grass_5.png'
p24
ag24
ag20
ag15
ag19
ag20
ag11
ag3
ag23
ag23
ag20
ag19
ag19
aa(lp25
g15
ag16
ag9
ag23
ag19
ag23
ag18
ag19
ag23
ag16
aS'grass_3.png'
p26
ag3
ag23
ag5
ag20
ag23
ag19
ag23
ag16
ag20
aa(lp27
g6
ag16
ag20
ag9
ag18
ag9
ag20
ag19
ag18
ag19
ag16
ag9
ag18
ag9
ag18
ag20
ag23
ag20
ag23
ag2
aa(lp28
g6
ag15
ag6
ag4
ag19
ag20
ag14
ag24
ag9
ag9
ag26
ag9
ag26
ag20
ag19
ag19
ag18
ag16
ag18
ag15
aa(lp29
g2
ag3
ag14
ag24
ag7
ag4
ag7
ag16
ag23
ag19
ag9
ag3
ag18
ag18
ag18
ag16
ag16
ag7
ag24
ag2
aa(lp30
g2
ag13
ag11
ag11
aS'grass_0.png'
p31
ag24
ag26
ag26
ag18
ag18
ag24
ag24
ag7
ag4
ag23
ag16
ag20
ag7
ag15
ag3
aa(lp32
g5
ag11
ag24
ag26
ag15
ag6
ag15
ag4
ag20
ag9
ag15
ag7
ag26
ag5
ag9
ag19
ag16
ag18
ag19
ag4
aa(lp33
g5
ag26
ag3
ag15
ag15
ag5
ag6
ag13
ag18
ag18
ag26
ag18
ag14
ag3
ag20
ag19
ag19
ag20
ag23
ag6
aa(lp34
g15
ag24
ag26
ag26
ag6
ag6
ag14
ag4
ag9
ag16
ag11
ag14
ag26
ag2
ag14
ag9
ag18
ag20
ag16
ag4
aa(lp35
g6
ag3
ag4
ag3
ag15
ag15
ag11
ag11
ag23
ag23
ag7
ag4
ag18
ag5
ag4
ag3
ag7
ag26
ag20
ag5
aa(lp36
g6
ag14
ag7
ag26
ag13
ag11
ag14
ag24
ag20
ag18
ag11
ag23
ag26
ag5
ag11
ag15
ag7
ag26
ag18
ag15
aa(lp37
g5
ag20
ag14
ag11
ag24
ag26
ag2
ag14
ag19
ag23
ag3
ag23
ag13
ag26
ag14
ag7
ag4
ag2
ag9
ag4
aa(lp38
g16
ag23
ag19
ag16
ag23
ag16
ag9
ag16
ag9
ag23
ag20
ag9
ag23
ag16
ag18
ag18
ag9
ag20
ag23
ag6
aa(lp39
g18
ag18
ag23
ag23
ag18
ag19
ag23
ag20
ag16
ag19
ag9
ag16
ag16
ag19
ag16
ag9
ag20
ag16
ag19
ag23
aa(lp40
g18
ag9
ag19
ag11
ag26
ag26
ag3
ag16
ag4
ag19
ag2
ag2
ag7
ag24
ag2
ag3
ag4
ag11
ag26
ag3
aa(lp41
g9
ag18
ag16
ag13
ag7
ag13
ag24
ag16
ag24
ag7
ag24
ag14
ag7
ag14
ag26
ag24
ag26
ag26
ag26
ag2
aa(lp42
g23
ag19
ag16
ag19
ag5
ag9
ag15
ag6
ag2
ag5
ag15
ag5
ag3
ag15
ag3
ag2
ag6
ag6
ag4
ag6
aa.