(lp0
(lp1
(lp2
S'BLUE'
p3
aaI0
a(lp4
g3
aaI0
aI0
a(lp5
S'FIRE'
p6
aaI0
aI0
aa(lp7
(lp8
S'FIRE'
p9
aa(lp10
g3
aa(lp11
g3
aaI0
aI0
a(lp12
g6
aaI0
aI0
aa(lp13
I0
aI0
aI0
aI0
aI0
a(lp14
g6
aaI0
a(lp15
g3
aaa(lp16
I0
a(lp17
g3
aa(lp18
g3
aa(lp19
g3
aa(lp20
g3
aaI0
aI0
a(lp21
g3
aaa(lp22
I0
a(lp23
g3
aaI0
aI0
a(lp24
g3
aaI0
aI0
a(lp25
g3
aaa(lp26
I0
aI0
aI0
aI0
aI0
aI0
aI0
a(lp27
g3
aaa(lp28
I0
aI0
a(lp29
g6
aa(lp30
g6
aa(lp31
g6
aaI0
a(lp32
g3
aa(lp33
g3
aaa(lp34
I0
aI0
a(lp35
g6
aa(lp36
g6
aa(lp37
g6
aaI0
aI0
aI0
aa(lp38
I0
aI0
aI0
a(lp39
g6
aaI0
aI0
aI0
aI0
aa.