(lp0
(lp1
S'grass_0.png'
p2
aS'dirt_path_single_vertical.png'
p3
aS'grass_3.png'
p4
aS'grass_4.png'
p5
ag5
aS'grass_2.png'
p6
ag5
aS'grass_3.png'
p7
ag2
ag2
ag6
ag2
aS'grass_5.png'
p8
ag5
ag6
ag8
ag6
ag7
ag2
ag5
ag7
ag2
ag7
ag5
ag5
aa(lp9
g7
ag3
aS'grass_4.png'
p10
aS'grass_5.png'
p11
aS'grass_3.png'
p12
ag12
aS'grass_0.png'
p13
ag8
ag8
ag8
aS'grass_4.png'
p14
ag14
aS'grass_0.png'
p15
ag15
aS'grass_2.png'
p16
ag5
ag6
ag5
ag5
ag6
ag7
ag2
ag7
ag7
ag6
aa(lp17
g7
ag3
aS'grass_1.png'
p18
aS'grass_2.png'
p19
aS'grass_4.png'
p20
ag19
ag2
aS'grass_1.png'
p21
ag21
ag16
aS'grass_3.png'
p22
ag15
ag22
ag22
ag22
aS'tree_top_0.png'
p23
ag6
ag6
ag2
ag7
ag5
ag7
ag7
ag21
ag5
aa(lp24
g7
ag3
ag4
aS'grass_0.png'
p25
ag25
aS'grass_1.png'
p26
ag8
aS'tree_top_0.png'
p27
ag7
ag8
ag22
aS'grass_1.png'
p28
ag15
ag14
ag14
aS'tree_bottom_1.png'
p29
ag6
ag7
ag7
aS'casa_3.png'
p30
aS'casa_4.png'
p31
aS'casa_5.png'
p32
ag7
ag2
ag2
aa(lp33
g7
aS'dirt_path_left.png'
p34
aS'dirt_path_topright.png'
p35
ag20
ag20
aS'grass_0.png'
p36
ag8
aS'tree_bottom_0.png'
p37
ag7
ag5
ag7
ag6
ag8
ag5
ag8
ag2
ag2
ag2
ag2
aS'casa_0.png'
p38
aS'casa_1.png'
p39
aS'casa_2.png'
p40
ag5
ag8
ag7
aa(lp41
g21
aS'dirt_path_bottomleft.png'
p42
aS'dirt_path_single_vertical.png'
p43
ag20
ag19
ag11
ag5
ag5
ag2
ag21
aS'tree_top_1.png'
p44
ag21
ag6
ag2
ag5
ag8
ag5
ag6
ag2
ag2
ag2
ag2
ag7
ag23
ag21
aa(lp45
g2
ag7
ag43
ag2
aS'tree_top_0.png'
p46
ag6
ag7
ag5
ag21
ag21
ag37
ag21
aS'water_grass_topleft_0.png'
p47
aS'water_grass_top_0.png'
p48
ag48
ag48
aS'water_grass_topright_0.png'
p49
ag21
ag2
ag2
ag2
ag21
ag8
ag29
ag6
aa(lp50
g5
ag2
ag43
ag6
aS'tree_bottom_1.png'
p51
ag7
ag2
ag6
ag7
ag7
ag21
ag7
aS'water_grass_left_0.png'
p52
aS'water_mid_0.png'
p53
ag53
ag53
aS'water_grass_right_0.png'
p54
ag2
ag26
ag7
ag7
ag2
ag5
aS'grass_1.png'
p55
ag6
aa(lp56
g8
ag5
ag43
ag2
ag21
ag6
ag7
ag6
ag2
ag5
ag8
ag5
ag52
ag53
ag53
ag53
ag54
ag5
ag19
ag20
ag11
ag26
ag26
aS'grass_0.png'
p57
ag6
aa(lp58
g5
ag6
ag43
ag30
ag31
ag32
ag8
ag2
ag2
ag8
ag5
ag5
ag52
ag53
ag53
ag53
ag54
ag21
ag19
ag23
ag20
ag19
ag36
ag23
ag8
aa(lp59
g21
ag7
ag43
ag38
ag39
ag40
ag6
ag2
ag5
ag6
ag21
ag6
ag52
ag53
ag53
ag53
ag54
ag7
ag19
ag29
ag12
ag19
ag11
ag29
ag5
aa(lp60
g6
ag7
ag43
ag6
ag43
ag8
ag7
ag30
ag31
ag32
ag6
ag21
ag52
ag53
ag53
ag53
ag54
ag6
ag12
ag12
ag11
ag36
ag20
aS'grass_4.png'
p61
ag8
aa(lp62
g21
ag8
aS'dirt_path_left.png'
p63
aS'dirt_path_top.png'
p64
aS'dirt_path_threeway_right.png'
p65
ag5
ag6
ag38
ag39
ag40
ag2
ag23
ag52
ag53
ag53
ag53
ag54
ag21
ag20
ag12
ag19
ag19
ag12
ag57
ag6
aa(lp66
g6
ag5
aS'dirt_path_bottomleft.png'
p67
aS'dirt_path_bottom.png'
p68
aS'dirt_path_threeway_top.png'
p69
ag21
ag21
ag5
ag43
ag7
ag8
ag29
ag52
ag53
ag53
ag53
ag54
ag2
ag23
ag12
ag20
ag19
ag36
ag55
ag21
aa(lp70
g7
ag2
ag36
ag21
ag43
ag7
ag21
ag7
ag43
ag21
ag21
ag21
aS'water_grass_bottomleft_0.png'
p71
aS'water_grass_bottom_0.png'
p72
ag72
ag72
aS'water_grass_bottomright_0.png'
p73
aS'grass_0.png'
p74
ag29
ag61
ag36
ag61
ag57
aS'grass_5.png'
p75
ag6
aa(lp76
g6
ag5
ag6
ag7
ag63
ag64
ag64
ag64
aS'dirt_path_threeway_bottom.png'
p77
ag64
ag64
ag64
ag64
ag64
aS'dirt_path_topright.png'
p78
ag8
ag2
ag21
ag6
ag21
ag8
ag23
ag15
ag2
ag5
aa(lp79
g8
ag6
ag5
ag5
ag67
ag68
ag68
ag68
ag69
ag68
ag68
ag68
ag68
ag68
aS'dirt_path_bottomright.png'
p80
ag5
ag2
ag5
ag7
ag5
ag7
ag29
ag8
ag6
ag2
aa(lp81
g7
ag8
ag7
ag5
ag2
ag16
ag14
ag2
ag43
ag15
ag23
ag16
ag6
ag5
ag2
ag30
ag31
ag32
ag5
ag21
ag7
ag21
ag2
ag8
ag21
aa(lp82
g6
ag7
ag6
ag23
ag5
ag28
ag14
aS'grass_5.png'
p83
ag43
ag14
ag29
ag16
ag8
ag6
ag7
ag38
ag39
ag40
ag2
ag2
ag21
ag2
ag8
ag21
ag5
aa(lp84
g21
ag8
ag6
ag29
ag21
ag2
ag7
ag5
ag43
ag15
ag83
ag16
ag6
ag7
ag6
ag8
ag43
ag2
ag7
ag21
ag21
ag5
ag21
ag21
ag2
aa(lp85
g21
ag21
ag8
ag6
ag2
ag21
ag8
ag8
ag77
ag64
ag64
ag64
ag64
ag64
ag64
ag64
ag65
ag7
ag6
ag7
ag7
ag5
ag6
ag7
ag2
aa(lp86
g5
ag2
ag7
ag21
ag7
ag2
ag2
ag8
ag67
ag68
ag68
ag68
ag68
ag68
ag68
ag68
ag80
ag6
ag8
ag8
ag7
ag7
ag7
ag7
ag8
aa(lp87
g2
ag5
ag2
ag5
ag5
ag2
ag2
ag21
ag5
ag21
ag5
ag7
ag5
ag6
ag5
ag2
ag8
ag8
ag2
ag6
ag2
ag21
ag21
ag7
ag21
aa.