(lp0
(lp1
S'grass_0.png'
p2
aS'grass_3.png'
p3
ag2
aS'grass_4.png'
p4
ag4
aS'grass_2.png'
p5
ag4
ag3
ag2
ag2
ag5
ag2
aS'grass_5.png'
p6
ag4
ag5
ag6
ag5
ag3
ag2
ag4
ag3
ag2
ag3
ag4
ag4
aa(lp7
g3
ag5
aS'grass_1.png'
p8
ag4
ag4
ag8
ag2
ag6
ag6
ag6
ag8
ag4
ag3
ag8
ag3
ag4
ag5
ag4
ag4
ag5
ag3
ag2
ag3
ag3
ag5
aa(lp9
g3
ag8
ag5
ag8
ag4
ag6
ag2
ag8
ag8
ag5
ag3
ag3
ag6
ag4
ag2
ag5
ag5
ag5
ag2
ag3
ag4
ag3
ag3
ag8
ag4
aa(lp10
g3
ag5
ag5
ag3
ag5
ag8
ag6
ag4
ag3
ag6
ag6
ag2
ag2
ag3
ag5
ag6
ag5
ag3
ag3
ag6
ag2
ag2
ag3
ag2
ag2
aa(lp11
g3
ag6
ag4
ag8
ag8
ag2
ag6
ag8
ag3
ag4
ag3
ag5
ag6
ag4
ag6
ag2
ag2
ag2
ag2
ag2
ag5
ag3
ag4
ag6
ag3
aa(lp12
g8
ag5
ag4
ag4
ag3
ag5
ag4
ag4
ag2
ag8
ag8
ag8
ag5
ag2
ag4
ag6
ag4
ag5
ag2
ag2
ag2
ag2
ag3
ag5
ag8
aa(lp13
g2
ag3
ag8
ag2
ag8
ag5
ag3
ag4
ag8
ag8
ag3
ag8
ag3
ag5
ag5
ag5
ag6
ag8
ag2
ag2
ag2
ag8
ag6
ag2
ag5
aa(lp14
g4
ag2
ag6
ag5
ag4
ag3
ag2
ag5
ag3
ag3
ag8
ag3
ag3
ag2
ag3
ag8
ag8
ag2
ag5
ag3
ag3
ag2
ag4
ag3
ag5
aa(lp15
g6
ag4
ag6
ag2
ag8
ag5
ag3
ag5
ag2
ag4
ag6
ag4
ag6
ag3
ag2
ag2
ag4
ag4
ag2
ag3
ag2
ag5
ag4
ag2
ag5
aa(lp16
g4
ag5
ag3
ag8
ag5
ag5
ag6
ag2
ag2
ag6
ag4
ag4
ag6
ag6
ag3
ag4
ag2
ag8
ag6
ag3
ag2
ag5
ag2
ag6
ag6
aa(lp17
g8
ag3
ag2
ag2
ag5
ag5
ag5
ag2
ag4
ag5
ag8
ag5
ag6
ag3
ag8
ag6
ag3
ag3
ag8
ag6
ag4
ag5
ag8
ag2
ag4
aa(lp18
g5
ag3
ag3
ag5
ag2
ag6
ag3
ag3
ag6
ag6
ag5
ag8
ag4
ag3
ag4
ag3
ag5
ag5
ag3
ag2
ag6
ag2
ag5
ag5
ag6
aa(lp19
g8
ag6
ag2
ag8
ag5
ag4
ag5
ag2
ag6
ag4
ag2
ag6
ag5
ag8
ag4
ag5
ag3
ag8
ag5
ag4
ag2
ag5
ag2
ag2
ag5
aa(lp20
g5
ag4
ag5
ag3
ag3
ag8
ag8
ag4
ag8
ag3
ag6
ag2
ag2
ag5
ag3
ag2
ag5
ag2
ag8
ag6
ag2
ag6
ag4
ag5
ag8
aa(lp21
g3
ag2
ag5
ag8
ag2
ag3
ag8
ag3
ag4
ag8
ag8
ag8
ag2
ag2
ag6
ag5
ag4
ag5
ag3
ag4
ag8
ag4
ag6
ag2
ag5
aa(lp22
g5
ag4
ag5
ag3
ag8
ag3
ag8
ag8
ag3
ag4
ag5
ag3
ag4
ag8
ag2
ag6
ag2
ag8
ag5
ag8
ag6
ag4
ag8
ag2
ag4
aa(lp23
g6
ag5
ag4
ag4
ag8
ag6
ag4
ag2
ag4
ag6
ag3
ag4
ag4
ag3
ag8
ag4
ag2
ag4
ag3
ag4
ag3
ag2
ag6
ag5
ag2
aa(lp24
g3
ag6
ag3
ag4
ag2
ag8
ag6
ag2
ag3
ag5
ag5
ag4
ag5
ag4
ag2
ag4
ag2
ag4
ag4
ag8
ag3
ag8
ag2
ag6
ag8
aa(lp25
g5
ag3
ag5
ag3
ag4
ag4
ag3
ag3
ag6
ag2
ag2
ag4
ag6
ag5
ag3
ag8
ag2
ag3
ag2
ag2
ag8
ag2
ag6
ag8
ag4
aa(lp26
g8
ag6
ag5
ag6
ag8
ag2
ag3
ag4
ag3
ag4
ag2
ag2
ag5
ag3
ag5
ag6
ag3
ag2
ag3
ag8
ag8
ag4
ag8
ag8
ag2
aa(lp27
g8
ag8
ag6
ag5
ag2
ag8
ag6
ag6
ag3
ag2
ag2
ag4
ag3
ag5
ag5
ag3
ag8
ag3
ag5
ag3
ag3
ag4
ag5
ag3
ag2
aa(lp28
g4
ag2
ag3
ag8
ag3
ag2
ag2
ag6
ag8
ag5
ag4
ag4
ag2
ag2
ag4
ag4
ag2
ag5
ag6
ag6
ag3
ag3
ag3
ag3
ag6
aa(lp29
g2
ag4
ag2
ag4
ag4
ag2
ag2
ag8
ag4
ag8
ag4
ag3
ag4
ag5
ag4
ag2
ag6
ag6
ag2
ag5
ag2
ag8
ag8
ag3
ag8
aa.